target datalayout = "e-m:e-p270:32:32-p271:32:32-p272:64:64-i64:64-i128:128-f80:128-n8:16:32:64-S128"
target triple = "x86_64-pc-linux-gnu"

%struct.buf_t = type { i32, ptr, i32, i32, i8, i8 }

; Function Attrs: nounwind uwtable
define dso_local i32 @swap_buf_data(ptr noundef %0, ptr noundef %1) #0 {
  %3 = alloca i32, align 4
  %4 = alloca ptr, align 8
  %5 = alloca ptr, align 8
  %6 = alloca ptr, align 8
  %7 = alloca i32, align 4
  %8 = alloca i32, align 4
  %9 = alloca i8, align 1
  %10 = alloca i8, align 1
  store ptr %0, ptr %4, align 8
  store ptr %1, ptr %5, align 8
  %11 = load ptr, ptr %4, align 8
  %12 = icmp ne ptr %11, null
  br i1 %12, label %13, label %16

13:                                               ; preds = %2
  %14 = load ptr, ptr %5, align 8
  %15 = icmp ne ptr %14, null
  br i1 %15, label %17, label %16

16:                                               ; preds = %13, %2
  store i32 22, ptr %3, align 4
  br label %95

17:                                               ; preds = %13
  br label %18

18:                                               ; preds = %17
  call void @llvm.lifetime.start.p0(i64 8, ptr %6) #9
  %19 = load ptr, ptr %4, align 8
  %20 = getelementptr inbounds nuw %struct.buf_t, ptr %19, i32 0, i32 1
  %21 = load ptr, ptr %20, align 8
  store ptr %21, ptr %6, align 8
  %22 = load ptr, ptr %5, align 8
  %23 = getelementptr inbounds nuw %struct.buf_t, ptr %22, i32 0, i32 1
  %24 = load ptr, ptr %23, align 8
  %25 = load ptr, ptr %4, align 8
  %26 = getelementptr inbounds nuw %struct.buf_t, ptr %25, i32 0, i32 1
  store ptr %24, ptr %26, align 8
  %27 = load ptr, ptr %6, align 8
  %28 = load ptr, ptr %5, align 8
  %29 = getelementptr inbounds nuw %struct.buf_t, ptr %28, i32 0, i32 1
  store ptr %27, ptr %29, align 8
  call void @llvm.lifetime.end.p0(i64 8, ptr %6) #9
  br label %30

30:                                               ; preds = %18
  br label %31

31:                                               ; preds = %30
  call void @llvm.lifetime.start.p0(i64 4, ptr %7) #9
  %32 = load ptr, ptr %4, align 8
  %33 = getelementptr inbounds nuw %struct.buf_t, ptr %32, i32 0, i32 3
  %34 = load i32, ptr %33, align 4
  store i32 %34, ptr %7, align 4
  %35 = load ptr, ptr %5, align 8
  %36 = getelementptr inbounds nuw %struct.buf_t, ptr %35, i32 0, i32 3
  %37 = load i32, ptr %36, align 4
  %38 = load ptr, ptr %4, align 8
  %39 = getelementptr inbounds nuw %struct.buf_t, ptr %38, i32 0, i32 3
  store i32 %37, ptr %39, align 4
  %40 = load i32, ptr %7, align 4
  %41 = load ptr, ptr %5, align 8
  %42 = getelementptr inbounds nuw %struct.buf_t, ptr %41, i32 0, i32 3
  store i32 %40, ptr %42, align 4
  call void @llvm.lifetime.end.p0(i64 4, ptr %7) #9
  br label %43

43:                                               ; preds = %31
  br label %44

44:                                               ; preds = %43
  call void @llvm.lifetime.start.p0(i64 4, ptr %8) #9
  %45 = load ptr, ptr %4, align 8
  %46 = getelementptr inbounds nuw %struct.buf_t, ptr %45, i32 0, i32 2
  %47 = load i32, ptr %46, align 8
  store i32 %47, ptr %8, align 4
  %48 = load ptr, ptr %5, align 8
  %49 = getelementptr inbounds nuw %struct.buf_t, ptr %48, i32 0, i32 2
  %50 = load i32, ptr %49, align 8
  %51 = load ptr, ptr %4, align 8
  %52 = getelementptr inbounds nuw %struct.buf_t, ptr %51, i32 0, i32 2
  store i32 %50, ptr %52, align 8
  %53 = load i32, ptr %8, align 4
  %54 = load ptr, ptr %5, align 8
  %55 = getelementptr inbounds nuw %struct.buf_t, ptr %54, i32 0, i32 2
  store i32 %53, ptr %55, align 8
  call void @llvm.lifetime.end.p0(i64 4, ptr %8) #9
  br label %56

56:                                               ; preds = %44
  br label %57

57:                                               ; preds = %56
  call void @llvm.lifetime.start.p0(i64 1, ptr %9) #9
  %58 = load ptr, ptr %4, align 8
  %59 = getelementptr inbounds nuw %struct.buf_t, ptr %58, i32 0, i32 4
  %60 = load i8, ptr %59, align 8, !range !8, !noundef !9
  %61 = trunc i8 %60 to i1
  %62 = zext i1 %61 to i8
  store i8 %62, ptr %9, align 1
  %63 = load ptr, ptr %5, align 8
  %64 = getelementptr inbounds nuw %struct.buf_t, ptr %63, i32 0, i32 4
  %65 = load i8, ptr %64, align 8, !range !8, !noundef !9
  %66 = trunc i8 %65 to i1
  %67 = load ptr, ptr %4, align 8
  %68 = getelementptr inbounds nuw %struct.buf_t, ptr %67, i32 0, i32 4
  %69 = zext i1 %66 to i8
  store i8 %69, ptr %68, align 8
  %70 = load i8, ptr %9, align 1, !range !8, !noundef !9
  %71 = trunc i8 %70 to i1
  %72 = load ptr, ptr %5, align 8
  %73 = getelementptr inbounds nuw %struct.buf_t, ptr %72, i32 0, i32 4
  %74 = zext i1 %71 to i8
  store i8 %74, ptr %73, align 8
  call void @llvm.lifetime.end.p0(i64 1, ptr %9) #9
  br label %75

75:                                               ; preds = %57
  br label %76

76:                                               ; preds = %75
  call void @llvm.lifetime.start.p0(i64 1, ptr %10) #9
  %77 = load ptr, ptr %4, align 8
  %78 = getelementptr inbounds nuw %struct.buf_t, ptr %77, i32 0, i32 5
  %79 = load i8, ptr %78, align 1, !range !8, !noundef !9
  %80 = trunc i8 %79 to i1
  %81 = zext i1 %80 to i8
  store i8 %81, ptr %10, align 1
  %82 = load ptr, ptr %5, align 8
  %83 = getelementptr inbounds nuw %struct.buf_t, ptr %82, i32 0, i32 5
  %84 = load i8, ptr %83, align 1, !range !8, !noundef !9
  %85 = trunc i8 %84 to i1
  %86 = load ptr, ptr %4, align 8
  %87 = getelementptr inbounds nuw %struct.buf_t, ptr %86, i32 0, i32 5
  %88 = zext i1 %85 to i8
  store i8 %88, ptr %87, align 1
  %89 = load i8, ptr %10, align 1, !range !8, !noundef !9
  %90 = trunc i8 %89 to i1
  %91 = load ptr, ptr %5, align 8
  %92 = getelementptr inbounds nuw %struct.buf_t, ptr %91, i32 0, i32 5
  %93 = zext i1 %90 to i8
  store i8 %93, ptr %92, align 1
  call void @llvm.lifetime.end.p0(i64 1, ptr %10) #9
  br label %94

94:                                               ; preds = %76
  store i32 0, ptr %3, align 4
  br label %95

95:                                               ; preds = %94, %16
  %96 = load i32, ptr %3, align 4
  ret i32 %96
}