; Function Attrs: mustprogress nofree norecurse nosync nounwind willreturn memory(argmem: readwrite) uwtable
define dso_local range(i32 0, 23) i32 @swap_buf_data(ptr noundef captures(address_is_null) %0, ptr noundef captures(address_is_null) %1) local_unnamed_addr #9 {
  %3 = icmp ne ptr %0, null
  %4 = icmp ne ptr %1, null
  %or.cond = and i1 %3, %4
  br i1 %or.cond, label %5, label %26

5:                                                ; preds = %2
  %6 = getelementptr inbounds nuw i8, ptr %0, i64 8
  %7 = load ptr, ptr %6, align 8
  %8 = getelementptr inbounds nuw i8, ptr %1, i64 8
  %9 = load ptr, ptr %8, align 8
  store ptr %9, ptr %6, align 8
  store ptr %7, ptr %8, align 8
  %10 = getelementptr inbounds nuw i8, ptr %0, i64 20
  %11 = load i32, ptr %10, align 4
  %12 = getelementptr inbounds nuw i8, ptr %1, i64 20
  %13 = load i32, ptr %12, align 4
  store i32 %13, ptr %10, align 4
  store i32 %11, ptr %12, align 4
  %14 = getelementptr inbounds nuw i8, ptr %0, i64 16
  %15 = load i32, ptr %14, align 8
  %16 = getelementptr inbounds nuw i8, ptr %1, i64 16
  %17 = load i32, ptr %16, align 8
  store i32 %17, ptr %14, align 8
  store i32 %15, ptr %16, align 8
  %18 = getelementptr inbounds nuw i8, ptr %0, i64 24
  %19 = load i8, ptr %18, align 8, !range !8, !noundef !9
  %20 = getelementptr inbounds nuw i8, ptr %1, i64 24
  %21 = load i8, ptr %20, align 8, !range !8, !noundef !9
  store i8 %21, ptr %18, align 8
  store i8 %19, ptr %20, align 8
  %22 = getelementptr inbounds nuw i8, ptr %0, i64 25
  %23 = load i8, ptr %22, align 1, !range !8, !noundef !9
  %24 = getelementptr inbounds nuw i8, ptr %1, i64 25
  %25 = load i8, ptr %24, align 1, !range !8, !noundef !9
  store i8 %25, ptr %22, align 1
  store i8 %23, ptr %24, align 1
  br label %26

26:                                               ; preds = %2, %5
  %.0 = phi i32 [ 0, %5 ], [ 22, %2 ]
  ret i32 %.0
}